target datalayout = "e-m:e-p270:32:32-p271:32:32-p272:64:64-i64:64-i128:128-f80:128-n8:16:32:64-S128"
target triple = "x86_64-pc-linux-gnu"

%struct.RelationSyncEntry = type { i32, i8, i8, i32, ptr, %struct.PublicationActions, [3 x ptr], ptr, ptr, ptr, i32, ptr, ptr, ptr }
%struct.PublicationActions = type { i8, i8, i8, i8 }
%struct.HASH_SEQ_STATUS = type { ptr, i32, ptr, i8, i32 }

@RelationSyncCache = internal global ptr null, align 8

; Function Attrs: nounwind uwtable
define internal void @rel_sync_cache_relation_cb(i64 noundef %0, i32 noundef %1) #0 {
  %3 = alloca i64, align 8
  %4 = alloca i32, align 4
  %5 = alloca ptr, align 8
  %6 = alloca i32, align 4
  %7 = alloca %struct.HASH_SEQ_STATUS, align 8
  store i64 %0, ptr %3, align 8
  store i32 %1, ptr %4, align 4
  call void @llvm.lifetime.start.p0(i64 8, ptr %5) #10
  %8 = load ptr, ptr @RelationSyncCache, align 8
  %9 = icmp eq ptr %8, null
  br i1 %9, label %10, label %11

10:                                               ; preds = %2
  store i32 1, ptr %6, align 4
  br label %33

11:                                               ; preds = %2
  %12 = load i32, ptr %4, align 4
  %13 = icmp ne i32 %12, 0
  br i1 %13, label %14, label %23

14:                                               ; preds = %11
  %15 = load ptr, ptr @RelationSyncCache, align 8
  %16 = call ptr @hash_search(ptr noundef %15, ptr noundef %4, i32 noundef 0, ptr noundef null)
  store ptr %16, ptr %5, align 8
  %17 = load ptr, ptr %5, align 8
  %18 = icmp ne ptr %17, null
  br i1 %18, label %19, label %22

19:                                               ; preds = %14
  %20 = load ptr, ptr %5, align 8
  %21 = getelementptr inbounds nuw %struct.RelationSyncEntry, ptr %20, i32 0, i32 1
  store i8 0, ptr %21, align 4
  br label %22

22:                                               ; preds = %19, %14
  br label %32

23:                                               ; preds = %11
  call void @llvm.lifetime.start.p0(i64 32, ptr %7) #10
  %24 = load ptr, ptr @RelationSyncCache, align 8
  call void @hash_seq_init(ptr noundef %7, ptr noundef %24)
  br label %25

25:                                               ; preds = %28, %23
  %26 = call ptr @hash_seq_search(ptr noundef %7)
  store ptr %26, ptr %5, align 8
  %27 = icmp ne ptr %26, null
  br i1 %27, label %28, label %31

28:                                               ; preds = %25
  %29 = load ptr, ptr %5, align 8
  %30 = getelementptr inbounds nuw %struct.RelationSyncEntry, ptr %29, i32 0, i32 1
  store i8 0, ptr %30, align 4
  br label %25, !llvm.loop !9

31:                                               ; preds = %25
  call void @llvm.lifetime.end.p0(i64 32, ptr %7) #10
  br label %32

32:                                               ; preds = %31, %22
  store i32 0, ptr %6, align 4
  br label %33

33:                                               ; preds = %32, %10
  call void @llvm.lifetime.end.p0(i64 8, ptr %5) #10
  %34 = load i32, ptr %6, align 4
  switch i32 %34, label %36 [
    i32 0, label %35
    i32 1, label %35
  ]

35:                                               ; preds = %33, %33
  ret void

36:                                               ; preds = %33
  unreachable
}