; Function Attrs: nounwind uwtable
define internal void @rel_sync_cache_relation_cb(i64 %0, i32 noundef %1) #2 {
  %3 = alloca i32, align 4
  %4 = alloca %struct.HASH_SEQ_STATUS, align 8
  store i32 %1, ptr %3, align 4
  %5 = load ptr, ptr @RelationSyncCache, align 8
  %6 = icmp eq ptr %5, null
  br i1 %6, label %17, label %7

7:                                                ; preds = %2
  %.not = icmp eq i32 %1, 0
  br i1 %.not, label %12, label %8

8:                                                ; preds = %7
  %9 = call ptr @hash_search(ptr noundef nonnull %5, ptr noundef nonnull %3, i32 noundef 0, ptr noundef null) #13
  %.not6 = icmp eq ptr %9, null
  br i1 %.not6, label %17, label %10

10:                                               ; preds = %8
  %11 = getelementptr inbounds nuw i8, ptr %9, i64 4
  store i8 0, ptr %11, align 4
  br label %17

12:                                               ; preds = %7
  call void @llvm.lifetime.start.p0(i64 32, ptr nonnull %4) #13
  call void @hash_seq_init(ptr noundef nonnull %4, ptr noundef nonnull %5) #13
  %13 = call ptr @hash_seq_search(ptr noundef nonnull %4) #13
  %.not57 = icmp eq ptr %13, null
  br i1 %.not57, label %._crit_edge, label %.lr.ph

.lr.ph:                                           ; preds = %12, %.lr.ph
  %14 = phi ptr [ %16, %.lr.ph ], [ %13, %12 ]
  %15 = getelementptr inbounds nuw i8, ptr %14, i64 4
  store i8 0, ptr %15, align 4
  %16 = call ptr @hash_seq_search(ptr noundef nonnull %4) #13
  %.not5 = icmp eq ptr %16, null
  br i1 %.not5, label %._crit_edge, label %.lr.ph, !llvm.loop !10

._crit_edge:                                      ; preds = %.lr.ph, %12
  call void @llvm.lifetime.end.p0(i64 32, ptr nonnull %4) #13
  br label %17

17:                                               ; preds = %._crit_edge, %10, %8, %2
  ret void
}